target datalayout = "e-m:e-p270:32:32-p271:32:32-p272:64:64-i64:64-i128:128-f80:128-n8:16:32:64-S128"
target triple = "x86_64-pc-linux-gnu"

%class.btDefaultCollisionConfiguration = type { %class.btCollisionConfiguration, i32, ptr, i8, ptr, i8, ptr, ptr, ptr, ptr, ptr, ptr, ptr, ptr, ptr, ptr, ptr, ptr, ptr, ptr, ptr, ptr }
%class.btCollisionConfiguration = type { ptr }

; Function Attrs: inlinehint mustprogress nounwind uwtable
define linkonce_odr dso_local noundef zeroext i1 @_ZN17btBroadphaseProxy10isCompoundEi(i32 noundef %0) #3 comdat align 2 {
  %2 = alloca i32, align 4
  store i32 %0, ptr %2, align 4, !tbaa !9
  %3 = load i32, ptr %2, align 4, !tbaa !9
  %4 = icmp eq i32 %3, 31
  ret i1 %4
}

; Function Attrs: inlinehint mustprogress nounwind uwtable
define linkonce_odr dso_local noundef zeroext i1 @_ZN17btBroadphaseProxy9isConcaveEi(i32 noundef %0) #3 comdat align 2 {
  %2 = alloca i32, align 4
  store i32 %0, ptr %2, align 4, !tbaa !9
  %3 = load i32, ptr %2, align 4, !tbaa !9
  %4 = icmp sgt i32 %3, 20
  br i1 %4, label %5, label %8

5:                                                ; preds = %1
  %6 = load i32, ptr %2, align 4, !tbaa !9
  %7 = icmp slt i32 %6, 30
  br label %8

8:                                                ; preds = %5, %1
  %9 = phi i1 [ false, %1 ], [ %7, %5 ]
  ret i1 %9
}

; Function Attrs: inlinehint mustprogress nounwind uwtable
define linkonce_odr dso_local noundef zeroext i1 @_ZN17btBroadphaseProxy8isConvexEi(i32 noundef %0) #3 comdat align 2 {
  %2 = alloca i32, align 4
  store i32 %0, ptr %2, align 4, !tbaa !9
  %3 = load i32, ptr %2, align 4, !tbaa !9
  %4 = icmp slt i32 %3, 20
  ret i1 %4
}

; Function Attrs: mustprogress uwtable
define dso_local noundef ptr @_ZN31btDefaultCollisionConfiguration35getClosestPointsAlgorithmCreateFuncEii(ptr noundef nonnull align 8 dereferenceable(176) %0, i32 noundef %1, i32 noundef %2) unnamed_addr #2 align 2 {
  %4 = alloca ptr, align 8
  %5 = alloca ptr, align 8
  %6 = alloca i32, align 4
  %7 = alloca i32, align 4
  store ptr %0, ptr %5, align 8, !tbaa !12
  store i32 %1, ptr %6, align 4, !tbaa !9
  store i32 %2, ptr %7, align 4, !tbaa !9
  %8 = load ptr, ptr %5, align 8
  %9 = load i32, ptr %6, align 4, !tbaa !9
  %10 = icmp eq i32 %9, 8
  br i1 %10, label %11, label %17

11:                                               ; preds = %3
  %12 = load i32, ptr %7, align 4, !tbaa !9
  %13 = icmp eq i32 %12, 8
  br i1 %13, label %14, label %17

14:                                               ; preds = %11
  %15 = getelementptr inbounds nuw %class.btDefaultCollisionConfiguration, ptr %8, i32 0, i32 14
  %16 = load ptr, ptr %15, align 8, !tbaa !35
  store ptr %16, ptr %4, align 8
  br label %105

17:                                               ; preds = %11, %3
  %18 = load i32, ptr %6, align 4, !tbaa !9
  %19 = icmp eq i32 %18, 8
  br i1 %19, label %20, label %26

20:                                               ; preds = %17
  %21 = load i32, ptr %7, align 4, !tbaa !9
  %22 = icmp eq i32 %21, 1
  br i1 %22, label %23, label %26

23:                                               ; preds = %20
  %24 = getelementptr inbounds nuw %class.btDefaultCollisionConfiguration, ptr %8, i32 0, i32 18
  %25 = load ptr, ptr %24, align 8, !tbaa !36
  store ptr %25, ptr %4, align 8
  br label %105

26:                                               ; preds = %20, %17
  %27 = load i32, ptr %6, align 4, !tbaa !9
  %28 = icmp eq i32 %27, 1
  br i1 %28, label %29, label %35

29:                                               ; preds = %26
  %30 = load i32, ptr %7, align 4, !tbaa !9
  %31 = icmp eq i32 %30, 8
  br i1 %31, label %32, label %35

32:                                               ; preds = %29
  %33 = getelementptr inbounds nuw %class.btDefaultCollisionConfiguration, ptr %8, i32 0, i32 19
  %34 = load ptr, ptr %33, align 8, !tbaa !37
  store ptr %34, ptr %4, align 8
  br label %105

35:                                               ; preds = %29, %26
  %36 = load i32, ptr %6, align 4, !tbaa !9
  %37 = call noundef zeroext i1 @_ZN17btBroadphaseProxy8isConvexEi(i32 noundef %36)
  br i1 %37, label %38, label %44

38:                                               ; preds = %35
  %39 = load i32, ptr %7, align 4, !tbaa !9
  %40 = icmp eq i32 %39, 28
  br i1 %40, label %41, label %44

41:                                               ; preds = %38
  %42 = getelementptr inbounds nuw %class.btDefaultCollisionConfiguration, ptr %8, i32 0, i32 21
  %43 = load ptr, ptr %42, align 8, !tbaa !41
  store ptr %43, ptr %4, align 8
  br label %105

44:                                               ; preds = %38, %35
  %45 = load i32, ptr %7, align 4, !tbaa !9
  %46 = call noundef zeroext i1 @_ZN17btBroadphaseProxy8isConvexEi(i32 noundef %45)
  br i1 %46, label %47, label %53

47:                                               ; preds = %44
  %48 = load i32, ptr %6, align 4, !tbaa !9
  %49 = icmp eq i32 %48, 28
  br i1 %49, label %50, label %53

50:                                               ; preds = %47
  %51 = getelementptr inbounds nuw %class.btDefaultCollisionConfiguration, ptr %8, i32 0, i32 20
  %52 = load ptr, ptr %51, align 8, !tbaa !42
  store ptr %52, ptr %4, align 8
  br label %105

53:                                               ; preds = %47, %44
  %54 = load i32, ptr %6, align 4, !tbaa !9
  %55 = call noundef zeroext i1 @_ZN17btBroadphaseProxy8isConvexEi(i32 noundef %54)
  br i1 %55, label %56, label %62

56:                                               ; preds = %53
  %57 = load i32, ptr %7, align 4, !tbaa !9
  %58 = call noundef zeroext i1 @_ZN17btBroadphaseProxy8isConvexEi(i32 noundef %57)
  br i1 %58, label %59, label %62

59:                                               ; preds = %56
  %60 = getelementptr inbounds nuw %class.btDefaultCollisionConfiguration, ptr %8, i32 0, i32 7
  %61 = load ptr, ptr %60, align 8, !tbaa !28
  store ptr %61, ptr %4, align 8
  br label %105

62:                                               ; preds = %56, %53
  %63 = load i32, ptr %6, align 4, !tbaa !9
  %64 = call noundef zeroext i1 @_ZN17btBroadphaseProxy8isConvexEi(i32 noundef %63)
  br i1 %64, label %65, label %71

65:                                               ; preds = %62
  %66 = load i32, ptr %7, align 4, !tbaa !9
  %67 = call noundef zeroext i1 @_ZN17btBroadphaseProxy9isConcaveEi(i32 noundef %66)
  br i1 %67, label %68, label %71

68:                                               ; preds = %65
  %69 = getelementptr inbounds nuw %class.btDefaultCollisionConfiguration, ptr %8, i32 0, i32 8
  %70 = load ptr, ptr %69, align 8, !tbaa !29
  store ptr %70, ptr %4, align 8
  br label %105

71:                                               ; preds = %65, %62
  %72 = load i32, ptr %7, align 4, !tbaa !9
  %73 = call noundef zeroext i1 @_ZN17btBroadphaseProxy8isConvexEi(i32 noundef %72)
  br i1 %73, label %74, label %80

74:                                               ; preds = %71
  %75 = load i32, ptr %6, align 4, !tbaa !9
  %76 = call noundef zeroext i1 @_ZN17btBroadphaseProxy9isConcaveEi(i32 noundef %75)
  br i1 %76, label %77, label %80

77:                                               ; preds = %74
  %78 = getelementptr inbounds nuw %class.btDefaultCollisionConfiguration, ptr %8, i32 0, i32 9
  %79 = load ptr, ptr %78, align 8, !tbaa !30
  store ptr %79, ptr %4, align 8
  br label %105

80:                                               ; preds = %74, %71
  %81 = load i32, ptr %6, align 4, !tbaa !9
  %82 = call noundef zeroext i1 @_ZN17btBroadphaseProxy10isCompoundEi(i32 noundef %81)
  br i1 %82, label %83, label %89

83:                                               ; preds = %80
  %84 = load i32, ptr %7, align 4, !tbaa !9
  %85 = call noundef zeroext i1 @_ZN17btBroadphaseProxy10isCompoundEi(i32 noundef %84)
  br i1 %85, label %86, label %89

86:                                               ; preds = %83
  %87 = getelementptr inbounds nuw %class.btDefaultCollisionConfiguration, ptr %8, i32 0, i32 11
  %88 = load ptr, ptr %87, align 8, !tbaa !32
  store ptr %88, ptr %4, align 8
  br label %105

89:                                               ; preds = %83, %80
  %90 = load i32, ptr %6, align 4, !tbaa !9
  %91 = call noundef zeroext i1 @_ZN17btBroadphaseProxy10isCompoundEi(i32 noundef %90)
  br i1 %91, label %92, label %95

92:                                               ; preds = %89
  %93 = getelementptr inbounds nuw %class.btDefaultCollisionConfiguration, ptr %8, i32 0, i32 10
  %94 = load ptr, ptr %93, align 8, !tbaa !31
  store ptr %94, ptr %4, align 8
  br label %105

95:                                               ; preds = %89
  %96 = load i32, ptr %7, align 4, !tbaa !9
  %97 = call noundef zeroext i1 @_ZN17btBroadphaseProxy10isCompoundEi(i32 noundef %96)
  br i1 %97, label %98, label %101

98:                                               ; preds = %95
  %99 = getelementptr inbounds nuw %class.btDefaultCollisionConfiguration, ptr %8, i32 0, i32 12
  %100 = load ptr, ptr %99, align 8, !tbaa !33
  store ptr %100, ptr %4, align 8
  br label %105

101:                                              ; preds = %95
  br label %102

102:                                              ; preds = %101
  %103 = getelementptr inbounds nuw %class.btDefaultCollisionConfiguration, ptr %8, i32 0, i32 13
  %104 = load ptr, ptr %103, align 8, !tbaa !34
  store ptr %104, ptr %4, align 8
  br label %105

105:                                              ; preds = %102, %98, %92, %86, %77, %68, %59, %50, %41, %32, %23, %14
  %106 = load ptr, ptr %4, align 8
  ret ptr %106
}