; Function Attrs: mustprogress nofree norecurse nosync nounwind willreturn memory(argmem: read) uwtable
define dso_local noundef ptr @_ZN31btDefaultCollisionConfiguration35getClosestPointsAlgorithmCreateFuncEii(ptr noundef nonnull readonly align 8 captures(none) dereferenceable(176) %0, i32 noundef %1, i32 noundef %2) unnamed_addr #6 align 2 {
  %4 = icmp eq i32 %1, 8
  %5 = icmp eq i32 %2, 8
  %or.cond = and i1 %4, %5
  br i1 %or.cond, label %29, label %6

6:                                                ; preds = %3
  %7 = icmp eq i32 %2, 1
  %or.cond3 = and i1 %4, %7
  br i1 %or.cond3, label %29, label %8

8:                                                ; preds = %6
  %9 = icmp eq i32 %1, 1
  %or.cond5 = and i1 %9, %5
  br i1 %or.cond5, label %29, label %10

10:                                               ; preds = %8
  %11 = icmp slt i32 %1, 20
  %12 = icmp eq i32 %2, 28
  %or.cond7 = and i1 %11, %12
  br i1 %or.cond7, label %29, label %13

13:                                               ; preds = %10
  %14 = icmp slt i32 %2, 20
  %15 = icmp eq i32 %1, 28
  %or.cond9 = and i1 %15, %14
  br i1 %or.cond9, label %29, label %16

16:                                               ; preds = %13
  br i1 %11, label %17, label %21

17:                                               ; preds = %16
  br i1 %14, label %29, label %18

18:                                               ; preds = %17
  %19 = add nsw i32 %2, -21
  %20 = icmp ult i32 %19, 9
  br i1 %20, label %29, label %.thread33

21:                                               ; preds = %16
  %22 = add nsw i32 %1, -21
  %23 = icmp ult i32 %22, 9
  %or.cond35 = select i1 %14, i1 %23, i1 false
  br i1 %or.cond35, label %29, label %24

24:                                               ; preds = %21
  %25 = icmp eq i32 %1, 31
  br i1 %25, label %26, label %.thread33

26:                                               ; preds = %24
  %27 = icmp eq i32 %2, 31
  %. = select i1 %27, i64 88, i64 80
  br label %29

.thread33:                                        ; preds = %24, %18
  %28 = icmp eq i32 %2, 31
  %.36 = select i1 %28, i64 96, i64 104
  br label %29

29:                                               ; preds = %.thread33, %26, %21, %18, %17, %13, %10, %8, %6, %3
  %.sink = phi i64 [ 112, %3 ], [ 144, %6 ], [ 152, %8 ], [ 168, %10 ], [ 160, %13 ], [ 56, %17 ], [ 64, %18 ], [ 72, %21 ], [ %., %26 ], [ %.36, %.thread33 ]
  %30 = getelementptr inbounds nuw i8, ptr %0, i64 %.sink
  %.0 = load ptr, ptr %30, align 8, !tbaa !60
  ret ptr %.0
}